target datalayout = "e-m:e-p270:32:32-p271:32:32-p272:64:64-i64:64-i128:128-f80:128-n8:16:32:64-S128"
target triple = "x86_64-pc-linux-gnu"

%class.rational = type { %class.mpq }
%class.mpq = type { %class.mpz, %class.mpz }
%class.mpz = type { i32, i8, ptr }
%"class.nla::factor" = type <{ i32, i32, i8, [3 x i8] }>
%"class.nla::factorization" = type { %class.svector.204, ptr }
%class.svector.204 = type { %class.vector.205 }
%class.vector.205 = type { ptr }

@_ZN8rational13g_mpq_managerE = external global ptr, align 8

; Function Attrs: mustprogress nounwind uwtable
define linkonce_odr hidden noundef i32 @_ZN11mpz_managerILb1EE4signERK3mpz(ptr noundef nonnull align 8 dereferenceable(16) %0) #4 comdat align 2 {
  %2 = alloca ptr, align 8
  store ptr %0, ptr %2, align 8, !tbaa !847
  %3 = load ptr, ptr %2, align 8, !tbaa !847
  %4 = getelementptr inbounds nuw %class.mpz, ptr %3, i32 0, i32 0
  %5 = load i32, ptr %4, align 8, !tbaa !849
  ret i32 %5
}

; Function Attrs: mustprogress uwtable
define linkonce_odr hidden noundef zeroext i1 @_ZN11mpz_managerILb1EE7is_zeroERK3mpz(ptr noundef nonnull align 8 dereferenceable(16) %0) #6 comdat align 2 {
  %2 = alloca ptr, align 8
  store ptr %0, ptr %2, align 8, !tbaa !847
  %3 = load ptr, ptr %2, align 8, !tbaa !847
  %4 = call noundef i32 @_ZN11mpz_managerILb1EE4signERK3mpz(ptr noundef nonnull align 8 dereferenceable(16) %3)
  %5 = icmp eq i32 %4, 0
  ret i1 %5
}

; Function Attrs: mustprogress uwtable
define linkonce_odr hidden noundef zeroext i1 @_ZN11mpq_managerILb1EE7is_zeroERK3mpz(ptr noundef nonnull align 8 dereferenceable(16) %0) #6 comdat align 2 {
  %2 = alloca ptr, align 8
  store ptr %0, ptr %2, align 8, !tbaa !847
  %3 = load ptr, ptr %2, align 8, !tbaa !847
  %4 = call noundef zeroext i1 @_ZN11mpz_managerILb1EE7is_zeroERK3mpz(ptr noundef nonnull align 8 dereferenceable(16) %3)
  ret i1 %4
}

; Function Attrs: mustprogress nounwind uwtable
define linkonce_odr hidden noundef i32 @_ZNK6vectorIN3nla6factorELb0EjE4sizeEv(ptr noundef nonnull align 8 dereferenceable(8) %0) #4 comdat align 2 {
  %2 = alloca i32, align 4
  %3 = alloca ptr, align 8
  store ptr %0, ptr %3, align 8, !tbaa !869
  %4 = load ptr, ptr %3, align 8
  %5 = getelementptr inbounds nuw %class.vector.205, ptr %4, i32 0, i32 0
  %6 = load ptr, ptr %5, align 8, !tbaa !871
  %7 = icmp eq ptr %6, null
  br i1 %7, label %8, label %9

8:                                                ; preds = %1
  store i32 0, ptr %2, align 4
  br label %14

9:                                                ; preds = %1
  %10 = getelementptr inbounds nuw %class.vector.205, ptr %4, i32 0, i32 0
  %11 = load ptr, ptr %10, align 8, !tbaa !871
  %12 = getelementptr inbounds i32, ptr %11, i64 -1
  %13 = load i32, ptr %12, align 4, !tbaa !8
  store i32 %13, ptr %2, align 4
  br label %14

14:                                               ; preds = %9, %8
  %15 = load i32, ptr %2, align 4
  ret i32 %15
}

; Function Attrs: mustprogress uwtable
define linkonce_odr hidden void @_ZN11mpq_managerILb1EE3delEPS0_R3mpq(ptr noundef %0, ptr noundef nonnull align 8 dereferenceable(32) %1) #6 comdat align 2 {
  %3 = alloca ptr, align 8
  %4 = alloca ptr, align 8
  store ptr %0, ptr %3, align 8, !tbaa !282
  store ptr %1, ptr %4, align 8, !tbaa !845
  %5 = load ptr, ptr %3, align 8, !tbaa !282
  %6 = load ptr, ptr %4, align 8, !tbaa !845
  %7 = getelementptr inbounds nuw %class.mpq, ptr %6, i32 0, i32 0
  call void @_ZN11mpz_managerILb1EE3delEPS0_R3mpz(ptr noundef %5, ptr noundef nonnull align 8 dereferenceable(16) %7)
  %8 = load ptr, ptr %3, align 8, !tbaa !282
  %9 = load ptr, ptr %4, align 8, !tbaa !845
  %10 = getelementptr inbounds nuw %class.mpq, ptr %9, i32 0, i32 1
  call void @_ZN11mpz_managerILb1EE3delEPS0_R3mpz(ptr noundef %8, ptr noundef nonnull align 8 dereferenceable(16) %10)
  ret void
}

; Function Attrs: mustprogress uwtable
define linkonce_odr hidden noundef zeroext i1 @_ZN11mpq_managerILb1EE7is_zeroERK3mpq(ptr noundef nonnull align 8 dereferenceable(32) %0) #6 comdat align 2 {
  %2 = alloca ptr, align 8
  store ptr %0, ptr %2, align 8, !tbaa !845
  %3 = load ptr, ptr %2, align 8, !tbaa !845
  %4 = getelementptr inbounds nuw %class.mpq, ptr %3, i32 0, i32 0
  %5 = call noundef zeroext i1 @_ZN11mpq_managerILb1EE7is_zeroERK3mpz(ptr noundef nonnull align 8 dereferenceable(16) %4)
  ret i1 %5
}

; Function Attrs: mustprogress nounwind uwtable
define linkonce_odr hidden noundef nonnull align 8 dereferenceable(728) ptr @_ZN8rational1mEv() #4 comdat align 2 {
  %1 = load ptr, ptr @_ZN8rational13g_mpq_managerE, align 8, !tbaa !282
  ret ptr %1
}

; Function Attrs: mustprogress uwtable
define linkonce_odr hidden noundef ptr @_ZNK6vectorIN3nla6factorELb0EjE3endEv(ptr noundef nonnull align 8 dereferenceable(8) %0) #6 comdat align 2 {
  %2 = alloca ptr, align 8
  store ptr %0, ptr %2, align 8, !tbaa !869
  %3 = load ptr, ptr %2, align 8
  %4 = getelementptr inbounds nuw %class.vector.205, ptr %3, i32 0, i32 0
  %5 = load ptr, ptr %4, align 8, !tbaa !871
  %6 = call noundef i32 @_ZNK6vectorIN3nla6factorELb0EjE4sizeEv(ptr noundef nonnull align 8 dereferenceable(8) %3)
  %7 = zext i32 %6 to i64
  %8 = getelementptr inbounds nuw %"class.nla::factor", ptr %5, i64 %7
  ret ptr %8
}

; Function Attrs: mustprogress nounwind uwtable
define linkonce_odr hidden noundef ptr @_ZNK6vectorIN3nla6factorELb0EjE5beginEv(ptr noundef nonnull align 8 dereferenceable(8) %0) #4 comdat align 2 {
  %2 = alloca ptr, align 8
  store ptr %0, ptr %2, align 8, !tbaa !869
  %3 = load ptr, ptr %2, align 8
  %4 = getelementptr inbounds nuw %class.vector.205, ptr %3, i32 0, i32 0
  %5 = load ptr, ptr %4, align 8, !tbaa !871
  ret ptr %5
}

; Function Attrs: mustprogress nounwind uwtable
define linkonce_odr hidden void @_ZN8rationalD2Ev(ptr noundef nonnull align 8 dereferenceable(32) %0) unnamed_addr #4 comdat align 2 personality ptr @__gxx_personality_v0 {
  %2 = alloca ptr, align 8
  store ptr %0, ptr %2, align 8, !tbaa !268
  %3 = load ptr, ptr %2, align 8
  %4 = load ptr, ptr @_ZN8rational13g_mpq_managerE, align 8, !tbaa !282
  %5 = getelementptr inbounds nuw %class.rational, ptr %3, i32 0, i32 0
  invoke void @_ZN11mpq_managerILb1EE3delEPS0_R3mpq(ptr noundef %4, ptr noundef nonnull align 8 dereferenceable(32) %5)
          to label %6 unwind label %7

6:                                                ; preds = %1
  ret void

7:                                                ; preds = %1
  %8 = landingpad { ptr, i32 }
          catch ptr null
  %9 = extractvalue { ptr, i32 } %8, 0
  call void @__clang_call_terminate(ptr %9) #21
  unreachable
}

; Function Attrs: mustprogress uwtable
define linkonce_odr hidden noundef zeroext i1 @_ZNK8rational7is_zeroEv(ptr noundef nonnull align 8 dereferenceable(32) %0) #6 comdat align 2 {
  %2 = alloca ptr, align 8
  store ptr %0, ptr %2, align 8, !tbaa !268
  %3 = load ptr, ptr %2, align 8
  %4 = call noundef nonnull align 8 dereferenceable(728) ptr @_ZN8rational1mEv()
  %5 = getelementptr inbounds nuw %class.rational, ptr %3, i32 0, i32 0
  %6 = call noundef zeroext i1 @_ZN11mpq_managerILb1EE7is_zeroERK3mpq(ptr noundef nonnull align 8 dereferenceable(32) %5)
  ret i1 %6
}

; Function Attrs: mustprogress uwtable
define linkonce_odr hidden noundef ptr @_ZNK3nla13factorization3endEv(ptr noundef nonnull align 8 dereferenceable(16) %0) #6 comdat align 2 {
  %2 = alloca ptr, align 8
  store ptr %0, ptr %2, align 8, !tbaa !317
  %3 = load ptr, ptr %2, align 8
  %4 = getelementptr inbounds nuw %"class.nla::factorization", ptr %3, i32 0, i32 0
  %5 = call noundef ptr @_ZNK6vectorIN3nla6factorELb0EjE3endEv(ptr noundef nonnull align 8 dereferenceable(8) %4)
  ret ptr %5
}

; Function Attrs: mustprogress uwtable
define linkonce_odr hidden noundef ptr @_ZNK3nla13factorization5beginEv(ptr noundef nonnull align 8 dereferenceable(16) %0) #6 comdat align 2 {
  %2 = alloca ptr, align 8
  store ptr %0, ptr %2, align 8, !tbaa !317
  %3 = load ptr, ptr %2, align 8
  %4 = getelementptr inbounds nuw %"class.nla::factorization", ptr %3, i32 0, i32 0
  %5 = call noundef ptr @_ZNK6vectorIN3nla6factorELb0EjE5beginEv(ptr noundef nonnull align 8 dereferenceable(8) %4)
  ret ptr %5
}

; Function Attrs: mustprogress uwtable
define hidden noundef zeroext i1 @_ZNK3nla4core15has_zero_factorERKNS_13factorizationE(ptr noundef nonnull align 8 dereferenceable(4736) %0, ptr noundef nonnull align 8 dereferenceable(16) %1) #6 align 2 personality ptr @__gxx_personality_v0 {
  %3 = alloca i1, align 1
  %4 = alloca ptr, align 8
  %5 = alloca ptr, align 8
  %6 = alloca ptr, align 8
  %7 = alloca ptr, align 8
  %8 = alloca ptr, align 8
  %9 = alloca i32, align 4
  %10 = alloca %"class.nla::factor", align 4
  %11 = alloca %class.rational, align 8
  %12 = alloca ptr, align 8
  %13 = alloca i32, align 4
  store ptr %0, ptr %4, align 8, !tbaa !16
  store ptr %1, ptr %5, align 8, !tbaa !317
  %14 = load ptr, ptr %4, align 8
  call void @llvm.lifetime.start.p0(i64 8, ptr %6) #3
  %15 = load ptr, ptr %5, align 8, !tbaa !317
  store ptr %15, ptr %6, align 8, !tbaa !317
  call void @llvm.lifetime.start.p0(i64 8, ptr %7) #3
  %16 = load ptr, ptr %6, align 8, !tbaa !317
  %17 = call noundef ptr @_ZNK3nla13factorization5beginEv(ptr noundef nonnull align 8 dereferenceable(16) %16)
  store ptr %17, ptr %7, align 8, !tbaa !300
  call void @llvm.lifetime.start.p0(i64 8, ptr %8) #3
  %18 = load ptr, ptr %6, align 8, !tbaa !317
  %19 = call noundef ptr @_ZNK3nla13factorization3endEv(ptr noundef nonnull align 8 dereferenceable(16) %18)
  store ptr %19, ptr %8, align 8, !tbaa !300
  br label %20

20:                                               ; preds = %38, %2
  %21 = load ptr, ptr %7, align 8, !tbaa !300
  %22 = load ptr, ptr %8, align 8, !tbaa !300
  %23 = icmp ne ptr %21, %22
  br i1 %23, label %25, label %24

24:                                               ; preds = %20
  store i32 2, ptr %9, align 4
  br label %41

25:                                               ; preds = %20
  call void @llvm.lifetime.start.p0(i64 12, ptr %10) #3
  %26 = load ptr, ptr %7, align 8, !tbaa !300
  call void @llvm.memcpy.p0.p0.i64(ptr align 4 %10, ptr align 4 %26, i64 12, i1 false), !tbaa.struct !428
  call void @llvm.lifetime.start.p0(i64 32, ptr %11) #3
  call void @_ZNK3nla4core3valERKNS_6factorE(ptr dead_on_unwind writable sret(%class.rational) align 8 %11, ptr noundef nonnull align 8 dereferenceable(4736) %14, ptr noundef nonnull align 4 dereferenceable(9) %10)
  %27 = invoke noundef zeroext i1 @_ZNK8rational7is_zeroEv(ptr noundef nonnull align 8 dereferenceable(32) %11)
          to label %28 unwind label %30

28:                                               ; preds = %25
  call void @_ZN8rationalD2Ev(ptr noundef nonnull align 8 dereferenceable(32) %11) #3
  call void @llvm.lifetime.end.p0(i64 32, ptr %11) #3
  br i1 %27, label %29, label %34

29:                                               ; preds = %28
  store i1 true, ptr %3, align 1
  store i32 1, ptr %9, align 4
  br label %35

30:                                               ; preds = %25
  %31 = landingpad { ptr, i32 }
          cleanup
  %32 = extractvalue { ptr, i32 } %31, 0
  store ptr %32, ptr %12, align 8
  %33 = extractvalue { ptr, i32 } %31, 1
  store i32 %33, ptr %13, align 4
  call void @_ZN8rationalD2Ev(ptr noundef nonnull align 8 dereferenceable(32) %11) #3
  call void @llvm.lifetime.end.p0(i64 32, ptr %11) #3
  call void @llvm.lifetime.end.p0(i64 12, ptr %10) #3
  call void @llvm.lifetime.end.p0(i64 8, ptr %8) #3
  call void @llvm.lifetime.end.p0(i64 8, ptr %7) #3
  call void @llvm.lifetime.end.p0(i64 8, ptr %6) #3
  br label %46

34:                                               ; preds = %28
  store i32 0, ptr %9, align 4
  br label %35

35:                                               ; preds = %34, %29
  call void @llvm.lifetime.end.p0(i64 12, ptr %10) #3
  %36 = load i32, ptr %9, align 4
  switch i32 %36, label %41 [
    i32 0, label %37
  ]

37:                                               ; preds = %35
  br label %38

38:                                               ; preds = %37
  %39 = load ptr, ptr %7, align 8, !tbaa !300
  %40 = getelementptr inbounds nuw %"class.nla::factor", ptr %39, i32 1
  store ptr %40, ptr %7, align 8, !tbaa !300
  br label %20

41:                                               ; preds = %35, %24
  call void @llvm.lifetime.end.p0(i64 8, ptr %8) #3
  call void @llvm.lifetime.end.p0(i64 8, ptr %7) #3
  call void @llvm.lifetime.end.p0(i64 8, ptr %6) #3
  %42 = load i32, ptr %9, align 4
  switch i32 %42, label %51 [
    i32 2, label %43
    i32 1, label %44
  ]

43:                                               ; preds = %41
  store i1 false, ptr %3, align 1
  br label %44

44:                                               ; preds = %43, %41
  %45 = load i1, ptr %3, align 1
  ret i1 %45

46:                                               ; preds = %30
  %47 = load ptr, ptr %12, align 8
  %48 = load i32, ptr %13, align 4
  %49 = insertvalue { ptr, i32 } poison, ptr %47, 0
  %50 = insertvalue { ptr, i32 } %49, i32 %48, 1
  resume { ptr, i32 } %50

51:                                               ; preds = %41
  unreachable
}