; Function Attrs: mustprogress uwtable
define hidden noundef zeroext i1 @_ZNK3nla4core15has_zero_factorERKNS_13factorizationE(ptr noundef nonnull align 8 dereferenceable(4736) %0, ptr noundef nonnull readonly align 8 captures(none) dereferenceable(16) %1) local_unnamed_addr #4 align 2 personality ptr @__gxx_personality_v0 {
  %3 = alloca %"class.nla::factor", align 4
  %4 = alloca %class.rational, align 8
  %5 = load ptr, ptr %1, align 8, !tbaa !300
  %6 = icmp eq ptr %5, null
  br i1 %6, label %._crit_edge, label %_ZNK3nla13factorization3endEv.exit

_ZNK3nla13factorization3endEv.exit:               ; preds = %2
  %7 = getelementptr inbounds i8, ptr %5, i64 -4
  %8 = load i32, ptr %7, align 4, !tbaa !249
  %9 = zext i32 %8 to i64
  %10 = getelementptr inbounds nuw %"class.nla::factor", ptr %5, i64 %9
  %.not16.not = icmp eq i32 %8, 0
  br i1 %.not16.not, label %._crit_edge, label %.lr.ph

.lr.ph:                                           ; preds = %_ZNK3nla13factorization3endEv.exit
  %11 = getelementptr inbounds nuw i8, ptr %4, i64 16
  br label %12

12:                                               ; preds = %_ZN8rationalD2Ev.exit, %.lr.ph
  %.01217 = phi ptr [ %5, %.lr.ph ], [ %19, %_ZN8rationalD2Ev.exit ]
  call void @llvm.lifetime.start.p0(i64 12, ptr nonnull %3) #27
  call void @llvm.memcpy.p0.p0.i64(ptr noundef nonnull align 4 dereferenceable(12) %3, ptr noundef nonnull align 4 dereferenceable(12) %.01217, i64 12, i1 false), !tbaa.struct !448
  call void @llvm.lifetime.start.p0(i64 32, ptr nonnull %4) #27
  call void @_ZNK3nla4core3valERKNS_6factorE(ptr dead_on_unwind nonnull writable sret(%class.rational) align 8 %4, ptr noundef nonnull align 8 dereferenceable(4736) %0, ptr noundef nonnull align 4 dereferenceable(9) %3)
  %13 = load i32, ptr %4, align 8, !tbaa !268
  %14 = icmp eq i32 %13, 0
  %15 = load ptr, ptr @_ZN8rational13g_mpq_managerE, align 8, !tbaa !266
  invoke void @_ZN11mpz_managerILb1EE3delEPS0_R3mpz(ptr noundef %15, ptr noundef nonnull align 8 dereferenceable(32) %4)
          to label %.noexc.i unwind label %16

.noexc.i:                                         ; preds = %12
  invoke void @_ZN11mpz_managerILb1EE3delEPS0_R3mpz(ptr noundef %15, ptr noundef nonnull align 8 dereferenceable(16) %11)
          to label %_ZN8rationalD2Ev.exit unwind label %16

16:                                               ; preds = %.noexc.i, %12
  %17 = landingpad { ptr, i32 }
          catch ptr null
  %18 = extractvalue { ptr, i32 } %17, 0
  call void @__clang_call_terminate(ptr %18) #28
  unreachable

_ZN8rationalD2Ev.exit:                            ; preds = %.noexc.i
  call void @llvm.lifetime.end.p0(i64 32, ptr nonnull %4) #27
  call void @llvm.lifetime.end.p0(i64 12, ptr nonnull %3) #27
  %19 = getelementptr inbounds nuw i8, ptr %.01217, i64 12
  %.not.not = icmp eq ptr %19, %10
  %or.cond = select i1 %14, i1 true, i1 %.not.not
  br i1 %or.cond, label %._crit_edge, label %12

._crit_edge:                                      ; preds = %_ZN8rationalD2Ev.exit, %2, %_ZNK3nla13factorization3endEv.exit
  %.not.lcssa = phi i1 [ false, %_ZNK3nla13factorization3endEv.exit ], [ false, %2 ], [ %14, %_ZN8rationalD2Ev.exit ]
  ret i1 %.not.lcssa
}